; Function Attrs: mustprogress uwtable
define hidden void @_ZN17expr_safe_replaceclER10ref_vectorI4expr11ast_managerE(ptr noundef nonnull align 8 dereferenceable(136) %0, ptr noundef nonnull readonly align 8 captures(none) dereferenceable(16) %1) local_unnamed_addr #3 align 2 personality ptr @__gxx_personality_v0 {
  %3 = alloca %class.obj_ref, align 8
  %4 = getelementptr inbounds nuw i8, ptr %0, i64 16
  %5 = load ptr, ptr %4, align 8, !tbaa !8
  %6 = icmp eq ptr %5, null
  br i1 %6, label %_ZNK17expr_safe_replace5emptyEv.exit.thread, label %_ZNK17expr_safe_replace5emptyEv.exit

_ZNK17expr_safe_replace5emptyEv.exit:             ; preds = %2
  %7 = getelementptr inbounds i8, ptr %5, i64 -4
  %8 = load i32, ptr %7, align 4, !tbaa !13
  %9 = icmp eq i32 %8, 0
  br i1 %9, label %_ZNK17expr_safe_replace5emptyEv.exit.thread, label %10

10:                                               ; preds = %_ZNK17expr_safe_replace5emptyEv.exit
  call void @llvm.lifetime.start.p0(i64 16, ptr nonnull %3) #20
  %11 = load ptr, ptr %0, align 8, !tbaa !29
  store ptr null, ptr %3, align 8, !tbaa !40
  %12 = getelementptr inbounds nuw i8, ptr %3, i64 8
  store ptr %11, ptr %12, align 8, !tbaa !42
  %13 = getelementptr inbounds nuw i8, ptr %1, i64 8
  br label %14

14:                                               ; preds = %55, %10
  %15 = phi ptr [ %40, %55 ], [ null, %10 ]
  %indvars.iv = phi i64 [ %indvars.iv.next, %55 ], [ 0, %10 ]
  %16 = load ptr, ptr %13, align 8, !tbaa !8
  %17 = icmp eq ptr %16, null
  br i1 %17, label %_ZNK15ref_vector_coreI4expr19ref_manager_wrapperIS0_11ast_managerEE4sizeEv.exit, label %18

18:                                               ; preds = %14
  %19 = getelementptr inbounds i8, ptr %16, i64 -4
  %20 = load i32, ptr %19, align 4, !tbaa !13
  %21 = zext i32 %20 to i64
  br label %_ZNK15ref_vector_coreI4expr19ref_manager_wrapperIS0_11ast_managerEE4sizeEv.exit

_ZNK15ref_vector_coreI4expr19ref_manager_wrapperIS0_11ast_managerEE4sizeEv.exit: ; preds = %14, %18
  %.0.i.i = phi i64 [ %21, %18 ], [ 0, %14 ]
  %22 = icmp samesign ult i64 %indvars.iv, %.0.i.i
  br i1 %22, label %36, label %23

23:                                               ; preds = %_ZNK15ref_vector_coreI4expr19ref_manager_wrapperIS0_11ast_managerEE4sizeEv.exit
  %.not.i.i = icmp eq ptr %15, null
  br i1 %.not.i.i, label %_ZN7obj_refI4expr11ast_managerED2Ev.exit, label %24

24:                                               ; preds = %23
  %25 = load ptr, ptr %12, align 8, !tbaa !43
  %26 = getelementptr inbounds nuw i8, ptr %15, i64 8
  %27 = load i32, ptr %26, align 4, !tbaa !3
  %28 = add i32 %27, -1
  store i32 %28, ptr %26, align 4, !tbaa !3
  %29 = icmp eq i32 %28, 0
  br i1 %29, label %30, label %_ZN7obj_refI4expr11ast_managerED2Ev.exit

30:                                               ; preds = %24
  invoke void @_ZN11ast_manager11delete_nodeEP3ast(ptr noundef nonnull align 8 dereferenceable(976) %25, ptr noundef nonnull %15)
          to label %_ZN7obj_refI4expr11ast_managerED2Ev.exit unwind label %31

31:                                               ; preds = %30
  %32 = landingpad { ptr, i32 }
          catch ptr null
  %33 = extractvalue { ptr, i32 } %32, 0
  tail call void @__clang_call_terminate(ptr %33) #21
  unreachable

_ZN7obj_refI4expr11ast_managerED2Ev.exit:         ; preds = %23, %24, %30
  call void @llvm.lifetime.end.p0(i64 16, ptr nonnull %3) #20
  br label %_ZNK17expr_safe_replace5emptyEv.exit.thread

34:                                               ; preds = %36
  %35 = landingpad { ptr, i32 }
          cleanup
  br label %58

36:                                               ; preds = %_ZNK15ref_vector_coreI4expr19ref_manager_wrapperIS0_11ast_managerEE4sizeEv.exit
  %37 = getelementptr inbounds nuw ptr, ptr %16, i64 %indvars.iv
  %38 = load ptr, ptr %37, align 8, !tbaa !14
  invoke void @_ZN17expr_safe_replaceclEP4exprR7obj_refIS0_11ast_managerE(ptr noundef nonnull align 8 dereferenceable(136) %0, ptr noundef %38, ptr noundef nonnull align 8 dereferenceable(16) %3)
          to label %39 unwind label %34

39:                                               ; preds = %36
  %40 = load ptr, ptr %3, align 8, !tbaa !40
  %41 = load ptr, ptr %13, align 8, !tbaa !8
  %42 = getelementptr inbounds nuw ptr, ptr %41, i64 %indvars.iv
  %43 = load ptr, ptr %1, align 8, !tbaa !44
  %.not.i.i12 = icmp eq ptr %40, null
  br i1 %.not.i.i12, label %_ZN11ast_manager7inc_refEP3ast.exit.i, label %44

44:                                               ; preds = %39
  %45 = getelementptr inbounds nuw i8, ptr %40, i64 8
  %46 = load i32, ptr %45, align 4, !tbaa !3
  %47 = add i32 %46, 1
  store i32 %47, ptr %45, align 4, !tbaa !3
  br label %_ZN11ast_manager7inc_refEP3ast.exit.i

_ZN11ast_manager7inc_refEP3ast.exit.i:            ; preds = %44, %39
  %48 = load ptr, ptr %42, align 8, !tbaa !14
  %.not.i3.i = icmp eq ptr %48, null
  br i1 %.not.i3.i, label %55, label %49

49:                                               ; preds = %_ZN11ast_manager7inc_refEP3ast.exit.i
  %50 = getelementptr inbounds nuw i8, ptr %48, i64 8
  %51 = load i32, ptr %50, align 4, !tbaa !3
  %52 = add i32 %51, -1
  store i32 %52, ptr %50, align 4, !tbaa !3
  %53 = icmp eq i32 %52, 0
  br i1 %53, label %54, label %55

54:                                               ; preds = %49
  invoke void @_ZN11ast_manager11delete_nodeEP3ast(ptr noundef nonnull align 8 dereferenceable(976) %43, ptr noundef nonnull %48)
          to label %55 unwind label %56

55:                                               ; preds = %49, %_ZN11ast_manager7inc_refEP3ast.exit.i, %54
  store ptr %40, ptr %42, align 8, !tbaa !14
  %indvars.iv.next = add nuw nsw i64 %indvars.iv, 1
  br label %14, !llvm.loop !45

56:                                               ; preds = %54
  %57 = landingpad { ptr, i32 }
          cleanup
  br label %58

58:                                               ; preds = %56, %34
  %.pn = phi { ptr, i32 } [ %57, %56 ], [ %35, %34 ]
  call void @_ZN7obj_refI4expr11ast_managerED2Ev(ptr noundef nonnull align 8 dereferenceable(16) %3) #20
  call void @llvm.lifetime.end.p0(i64 16, ptr nonnull %3) #20
  resume { ptr, i32 } %.pn

_ZNK17expr_safe_replace5emptyEv.exit.thread:      ; preds = %2, %_ZNK17expr_safe_replace5emptyEv.exit, %_ZN7obj_refI4expr11ast_managerED2Ev.exit
  ret void
}